; Function Attrs: nounwind uwtable
define internal void @qcon(ptr noundef initializes((296, 308), (312, 376)) %0) #0 {
  %2 = load i32, ptr @pmix_class_init_epoch, align 4, !tbaa !3
  %3 = load i32, ptr getelementptr inbounds nuw (i8, ptr @pmix_mutex_t_class, i64 32), align 8, !tbaa !7
  %.not = icmp eq i32 %2, %3
  br i1 %.not, label %5, label %4

4:                                                ; preds = %1
  tail call void @pmix_class_initialize(ptr noundef nonnull @pmix_mutex_t_class) #15
  br label %5

5:                                                ; preds = %4, %1
  %6 = getelementptr inbounds nuw i8, ptr %0, i64 256
  %7 = getelementptr inbounds nuw i8, ptr %0, i64 296
  store ptr @pmix_mutex_t_class, ptr %7, align 8, !tbaa !13
  %8 = getelementptr inbounds nuw i8, ptr %0, i64 304
  store i32 1, ptr %8, align 8, !tbaa !16
  %9 = getelementptr inbounds nuw i8, ptr %0, i64 312
  tail call void @llvm.memset.p0.i64(ptr noundef nonnull align 8 dereferenceable(64) %9, i8 0, i64 64, i1 false)
  %10 = load ptr, ptr getelementptr inbounds nuw (i8, ptr @pmix_mutex_t_class, i64 40), align 8, !tbaa !17
  %11 = load ptr, ptr %10, align 8, !tbaa !18
  %.not6.i = icmp eq ptr %11, null
  br i1 %.not6.i, label %pmix_obj_run_constructors.exit, label %.lr.ph.i

.lr.ph.i:                                         ; preds = %5, %.lr.ph.i
  %12 = phi ptr [ %14, %.lr.ph.i ], [ %11, %5 ]
  %.07.i = phi ptr [ %13, %.lr.ph.i ], [ %10, %5 ]
  tail call void %12(ptr noundef nonnull %6) #15
  %13 = getelementptr inbounds nuw i8, ptr %.07.i, i64 8
  %14 = load ptr, ptr %13, align 8, !tbaa !18
  %.not.i = icmp eq ptr %14, null
  br i1 %.not.i, label %pmix_obj_run_constructors.exit, label %.lr.ph.i, !llvm.loop !19

pmix_obj_run_constructors.exit:                   ; preds = %.lr.ph.i, %5
  %15 = getelementptr inbounds nuw i8, ptr %0, i64 416
  %16 = tail call i32 @pthread_cond_init(ptr noundef nonnull %15, ptr noundef null) #15
  %17 = getelementptr inbounds nuw i8, ptr %0, i64 464
  store volatile i8 1, ptr %17, align 8, !tbaa !171
  %18 = getelementptr inbounds nuw i8, ptr %0, i64 472
  store i8 0, ptr %18, align 8, !tbaa !175
  %19 = getelementptr inbounds nuw i8, ptr %0, i64 480
  %20 = getelementptr inbounds nuw i8, ptr %0, i64 528
  store i64 0, ptr %20, align 8, !tbaa !176
  %21 = getelementptr inbounds nuw i8, ptr %0, i64 832
  tail call void @llvm.memset.p0.i64(ptr noundef nonnull align 8 dereferenceable(40) %19, i8 0, i64 40, i1 false)
  tail call void @PMIx_Byte_object_construct(ptr noundef nonnull %21) #15
  %22 = load i32, ptr @pmix_class_init_epoch, align 4, !tbaa !3
  %23 = load i32, ptr getelementptr inbounds nuw (i8, ptr @pmix_list_t_class, i64 32), align 8, !tbaa !7
  %.not26 = icmp eq i32 %22, %23
  br i1 %.not26, label %25, label %24

24:                                               ; preds = %pmix_obj_run_constructors.exit
  tail call void @pmix_class_initialize(ptr noundef nonnull @pmix_list_t_class) #15
  br label %25

25:                                               ; preds = %24, %pmix_obj_run_constructors.exit
  %26 = getelementptr inbounds nuw i8, ptr %0, i64 544
  %27 = getelementptr inbounds nuw i8, ptr %0, i64 584
  store ptr @pmix_list_t_class, ptr %27, align 8, !tbaa !13
  %28 = getelementptr inbounds nuw i8, ptr %0, i64 592
  store i32 1, ptr %28, align 8, !tbaa !16
  %29 = getelementptr inbounds nuw i8, ptr %0, i64 600
  tail call void @llvm.memset.p0.i64(ptr noundef nonnull align 8 dereferenceable(64) %29, i8 0, i64 64, i1 false)
  %30 = load ptr, ptr getelementptr inbounds nuw (i8, ptr @pmix_list_t_class, i64 40), align 8, !tbaa !17
  %31 = load ptr, ptr %30, align 8, !tbaa !18
  %.not6.i27 = icmp eq ptr %31, null
  br i1 %.not6.i27, label %pmix_obj_run_constructors.exit31, label %.lr.ph.i28

.lr.ph.i28:                                       ; preds = %25, %.lr.ph.i28
  %32 = phi ptr [ %34, %.lr.ph.i28 ], [ %31, %25 ]
  %.07.i29 = phi ptr [ %33, %.lr.ph.i28 ], [ %30, %25 ]
  tail call void %32(ptr noundef nonnull %26) #15
  %33 = getelementptr inbounds nuw i8, ptr %.07.i29, i64 8
  %34 = load ptr, ptr %33, align 8, !tbaa !18
  %.not.i30 = icmp eq ptr %34, null
  br i1 %.not.i30, label %pmix_obj_run_constructors.exit31, label %.lr.ph.i28, !llvm.loop !19

pmix_obj_run_constructors.exit31:                 ; preds = %.lr.ph.i28, %25
  %35 = getelementptr inbounds nuw i8, ptr %0, i64 816
  %36 = getelementptr inbounds nuw i8, ptr %0, i64 848
  tail call void @llvm.memset.p0.i64(ptr noundef nonnull align 8 dereferenceable(16) %35, i8 0, i64 16, i1 false)
  tail call void @llvm.memset.p0.i64(ptr noundef nonnull align 8 dereferenceable(48) %36, i8 0, i64 48, i1 false)
  ret void
}